target datalayout = "e-m:e-p270:32:32-p271:32:32-p272:64:64-i64:64-i128:128-f80:128-n8:16:32:64-S128"
target triple = "x86_64-pc-linux-gnu"

%struct.slurm_step_layout = type { ptr, i32, ptr, ptr, ptr, i32, ptr, i16, i16, ptr, i32, i32, ptr }

; Function Attrs: nounwind uwtable
define dso_local i32 @slurm_step_layout_host_id(ptr noundef %0, i32 noundef %1) #0 {
  %3 = alloca i32, align 4
  %4 = alloca ptr, align 8
  %5 = alloca i32, align 4
  %6 = alloca i32, align 4
  %7 = alloca i32, align 4
  %8 = alloca i32, align 4
  store ptr %0, ptr %4, align 8
  store i32 %1, ptr %5, align 4
  call void @llvm.lifetime.start.p0(i64 4, ptr %6) #7
  call void @llvm.lifetime.start.p0(i64 4, ptr %7) #7
  %9 = load ptr, ptr %4, align 8
  %10 = getelementptr inbounds nuw %struct.slurm_step_layout, ptr %9, i32 0, i32 9
  %11 = load ptr, ptr %10, align 8
  %12 = icmp ne ptr %11, null
  br i1 %12, label %13, label %25

13:                                               ; preds = %2
  %14 = load ptr, ptr %4, align 8
  %15 = getelementptr inbounds nuw %struct.slurm_step_layout, ptr %14, i32 0, i32 12
  %16 = load ptr, ptr %15, align 8
  %17 = icmp ne ptr %16, null
  br i1 %17, label %18, label %25

18:                                               ; preds = %13
  %19 = load i32, ptr %5, align 4
  %20 = load ptr, ptr %4, align 8
  %21 = getelementptr inbounds nuw %struct.slurm_step_layout, ptr %20, i32 0, i32 10
  %22 = load i32, ptr %21, align 8
  %23 = sub i32 %22, 1
  %24 = icmp ugt i32 %19, %23
  br i1 %24, label %25, label %26

25:                                               ; preds = %18, %13, %2
  store i32 -1, ptr %3, align 4
  store i32 1, ptr %8, align 4
  br label %70

26:                                               ; preds = %18
  store i32 0, ptr %6, align 4
  br label %27

27:                                               ; preds = %66, %26
  %28 = load i32, ptr %6, align 4
  %29 = load ptr, ptr %4, align 8
  %30 = getelementptr inbounds nuw %struct.slurm_step_layout, ptr %29, i32 0, i32 5
  %31 = load i32, ptr %30, align 8
  %32 = icmp ult i32 %28, %31
  br i1 %32, label %33, label %69

33:                                               ; preds = %27
  store i32 0, ptr %7, align 4
  br label %34

34:                                               ; preds = %62, %33
  %35 = load i32, ptr %7, align 4
  %36 = load ptr, ptr %4, align 8
  %37 = getelementptr inbounds nuw %struct.slurm_step_layout, ptr %36, i32 0, i32 9
  %38 = load ptr, ptr %37, align 8
  %39 = load i32, ptr %6, align 4
  %40 = sext i32 %39 to i64
  %41 = getelementptr inbounds i16, ptr %38, i64 %40
  %42 = load i16, ptr %41, align 2
  %43 = zext i16 %42 to i32
  %44 = icmp slt i32 %35, %43
  br i1 %44, label %45, label %65

45:                                               ; preds = %34
  %46 = load ptr, ptr %4, align 8
  %47 = getelementptr inbounds nuw %struct.slurm_step_layout, ptr %46, i32 0, i32 12
  %48 = load ptr, ptr %47, align 8
  %49 = load i32, ptr %6, align 4
  %50 = sext i32 %49 to i64
  %51 = getelementptr inbounds ptr, ptr %48, i64 %50
  %52 = load ptr, ptr %51, align 8
  %53 = load i32, ptr %7, align 4
  %54 = sext i32 %53 to i64
  %55 = getelementptr inbounds i32, ptr %52, i64 %54
  %56 = load i32, ptr %55, align 4
  %57 = load i32, ptr %5, align 4
  %58 = icmp eq i32 %56, %57
  br i1 %58, label %59, label %61

59:                                               ; preds = %45
  %60 = load i32, ptr %6, align 4
  store i32 %60, ptr %3, align 4
  store i32 1, ptr %8, align 4
  br label %70

61:                                               ; preds = %45
  br label %62

62:                                               ; preds = %61
  %63 = load i32, ptr %7, align 4
  %64 = add nsw i32 %63, 1
  store i32 %64, ptr %7, align 4
  br label %34, !llvm.loop !20

65:                                               ; preds = %34
  br label %66

66:                                               ; preds = %65
  %67 = load i32, ptr %6, align 4
  %68 = add nsw i32 %67, 1
  store i32 %68, ptr %6, align 4
  br label %27, !llvm.loop !21

69:                                               ; preds = %27
  store i32 -1, ptr %3, align 4
  store i32 1, ptr %8, align 4
  br label %70

70:                                               ; preds = %69, %59, %25
  call void @llvm.lifetime.end.p0(i64 4, ptr %7) #7
  call void @llvm.lifetime.end.p0(i64 4, ptr %6) #7
  %71 = load i32, ptr %3, align 4
  ret i32 %71
}

; Function Attrs: nounwind uwtable
define dso_local ptr @slurm_step_layout_host_name(ptr noundef %0, i32 noundef %1) #0 {
  %3 = alloca ptr, align 8
  %4 = alloca ptr, align 8
  %5 = alloca i32, align 4
  %6 = alloca i32, align 4
  %7 = alloca i32, align 4
  store ptr %0, ptr %4, align 8
  store i32 %1, ptr %5, align 4
  call void @llvm.lifetime.start.p0(i64 4, ptr %6) #7
  %8 = load ptr, ptr %4, align 8
  %9 = load i32, ptr %5, align 4
  %10 = call i32 @slurm_step_layout_host_id(ptr noundef %8, i32 noundef %9)
  store i32 %10, ptr %6, align 4
  %11 = load i32, ptr %6, align 4
  %12 = icmp slt i32 %11, 0
  br i1 %12, label %13, label %14

13:                                               ; preds = %2
  store ptr null, ptr %3, align 8
  store i32 1, ptr %7, align 4
  br label %20

14:                                               ; preds = %2
  %15 = load ptr, ptr %4, align 8
  %16 = getelementptr inbounds nuw %struct.slurm_step_layout, ptr %15, i32 0, i32 6
  %17 = load ptr, ptr %16, align 8
  %18 = load i32, ptr %6, align 4
  %19 = call ptr @nodelist_nth_host(ptr noundef %17, i32 noundef %18)
  store ptr %19, ptr %3, align 8
  store i32 1, ptr %7, align 4
  br label %20

20:                                               ; preds = %14, %13
  call void @llvm.lifetime.end.p0(i64 4, ptr %6) #7
  %21 = load ptr, ptr %3, align 8
  ret ptr %21
}