; Function Attrs: nounwind uwtable
define dso_local ptr @slurm_step_layout_host_name(ptr noundef readonly captures(none) %0, i32 noundef %1) local_unnamed_addr #0 {
  %3 = getelementptr inbounds nuw i8, ptr %0, i64 64
  %4 = load ptr, ptr %3, align 8
  %.not.i = icmp eq ptr %4, null
  br i1 %.not.i, label %slurm_step_layout_host_id.exit.thread, label %5

5:                                                ; preds = %2
  %6 = getelementptr inbounds nuw i8, ptr %0, i64 80
  %7 = load ptr, ptr %6, align 8
  %.not19.i = icmp eq ptr %7, null
  br i1 %.not19.i, label %slurm_step_layout_host_id.exit.thread, label %8

8:                                                ; preds = %5
  %9 = getelementptr inbounds nuw i8, ptr %0, i64 72
  %10 = load i32, ptr %9, align 8
  %11 = add i32 %10, -1
  %12 = icmp ugt i32 %1, %11
  br i1 %12, label %slurm_step_layout_host_id.exit.thread, label %.preheader20.i

.preheader20.i:                                   ; preds = %8
  %13 = getelementptr inbounds nuw i8, ptr %0, i64 40
  %14 = load i32, ptr %13, align 8
  %.not25.i = icmp eq i32 %14, 0
  br i1 %.not25.i, label %slurm_step_layout_host_id.exit.thread, label %.preheader.preheader.i

.preheader.preheader.i:                           ; preds = %.preheader20.i
  %wide.trip.count33.i = zext i32 %14 to i64
  br label %.preheader.i

.preheader.i:                                     ; preds = %._crit_edge.i, %.preheader.preheader.i
  %indvars.iv30.i = phi i64 [ 0, %.preheader.preheader.i ], [ %indvars.iv.next31.i, %._crit_edge.i ]
  %15 = getelementptr inbounds nuw i16, ptr %4, i64 %indvars.iv30.i
  %16 = load i16, ptr %15, align 2
  %.not26.i = icmp eq i16 %16, 0
  br i1 %.not26.i, label %._crit_edge.i, label %.lr.ph.i

.lr.ph.i:                                         ; preds = %.preheader.i
  %17 = getelementptr inbounds nuw ptr, ptr %7, i64 %indvars.iv30.i
  %18 = load ptr, ptr %17, align 8
  %wide.trip.count.i = zext i16 %16 to i64
  br label %20

19:                                               ; preds = %20
  %indvars.iv.next.i = add nuw nsw i64 %indvars.iv.i, 1
  %exitcond.not.i = icmp eq i64 %indvars.iv.next.i, %wide.trip.count.i
  br i1 %exitcond.not.i, label %._crit_edge.i, label %20, !llvm.loop !28

20:                                               ; preds = %19, %.lr.ph.i
  %indvars.iv.i = phi i64 [ 0, %.lr.ph.i ], [ %indvars.iv.next.i, %19 ]
  %21 = getelementptr inbounds nuw i32, ptr %18, i64 %indvars.iv.i
  %22 = load i32, ptr %21, align 4
  %23 = icmp eq i32 %22, %1
  br i1 %23, label %slurm_step_layout_host_id.exit, label %19

._crit_edge.i:                                    ; preds = %19, %.preheader.i
  %indvars.iv.next31.i = add nuw nsw i64 %indvars.iv30.i, 1
  %exitcond34.not.i = icmp eq i64 %indvars.iv.next31.i, %wide.trip.count33.i
  br i1 %exitcond34.not.i, label %slurm_step_layout_host_id.exit.thread, label %.preheader.i, !llvm.loop !29

slurm_step_layout_host_id.exit:                   ; preds = %20
  %24 = trunc nuw nsw i64 %indvars.iv30.i to i32
  %25 = getelementptr inbounds nuw i8, ptr %0, i64 48
  %26 = load ptr, ptr %25, align 8
  %27 = tail call ptr @nodelist_nth_host(ptr noundef %26, i32 noundef %24) #7
  br label %slurm_step_layout_host_id.exit.thread

slurm_step_layout_host_id.exit.thread:            ; preds = %._crit_edge.i, %.preheader20.i, %2, %5, %8, %slurm_step_layout_host_id.exit
  %.0 = phi ptr [ %27, %slurm_step_layout_host_id.exit ], [ null, %8 ], [ null, %5 ], [ null, %2 ], [ null, %.preheader20.i ], [ null, %._crit_edge.i ]
  ret ptr %.0
}